; Function Attrs: nounwind uwtable
define hidden void @php_dom_named_node_map_get_item_into_zval(ptr noundef readonly %0, i64 noundef %1, ptr noundef %2) local_unnamed_addr #0 {
  %.not.i = icmp eq ptr %0, null
  br i1 %.not.i, label %php_dom_named_node_map_get_item.exit.thread, label %4

4:                                                ; preds = %3
  %5 = getelementptr inbounds i8, ptr %0, i64 24
  %6 = load i32, ptr %5, align 8
  switch i32 %6, label %17 [
    i32 12, label %7
    i32 6, label %7
  ]

7:                                                ; preds = %4, %4
  %8 = getelementptr inbounds i8, ptr %0, i64 32
  %9 = load ptr, ptr %8, align 8
  %.not25.i = icmp eq ptr %9, null
  br i1 %.not25.i, label %php_dom_named_node_map_get_item.exit.thread, label %10

10:                                               ; preds = %7
  %11 = icmp eq i32 %6, 6
  %12 = trunc i64 %1 to i32
  br i1 %11, label %13, label %15

13:                                               ; preds = %10
  %14 = tail call ptr @php_dom_libxml_hash_iter(ptr noundef nonnull %9, i32 noundef %12) #3
  br label %php_dom_named_node_map_get_item.exit

15:                                               ; preds = %10
  %16 = tail call ptr @php_dom_libxml_notation_iter(ptr noundef nonnull %9, i32 noundef %12) #3
  br label %php_dom_named_node_map_get_item.exit

17:                                               ; preds = %4
  %18 = load ptr, ptr %0, align 8
  %19 = tail call ptr @dom_object_get_node(ptr noundef %18) #3
  %.not24.i = icmp eq ptr %19, null
  br i1 %.not24.i, label %php_dom_named_node_map_get_item.exit.thread, label %20

20:                                               ; preds = %17
  %21 = getelementptr inbounds i8, ptr %19, i64 88
  %.01826.i = load ptr, ptr %21, align 8
  %22 = icmp sgt i64 %1, 0
  %23 = icmp ne ptr %.01826.i, null
  %24 = select i1 %22, i1 %23, i1 false
  br i1 %24, label %.lr.ph.i, label %php_dom_named_node_map_get_item.exit

.lr.ph.i:                                         ; preds = %20, %.lr.ph.i
  %.01828.i = phi ptr [ %.018.i, %.lr.ph.i ], [ %.01826.i, %20 ]
  %.027.i = phi i64 [ %25, %.lr.ph.i ], [ 0, %20 ]
  %25 = add nuw nsw i64 %.027.i, 1
  %26 = getelementptr inbounds i8, ptr %.01828.i, i64 48
  %.018.i = load ptr, ptr %26, align 8
  %27 = icmp slt i64 %25, %1
  %28 = icmp ne ptr %.018.i, null
  %29 = select i1 %27, i1 %28, i1 false
  br i1 %29, label %.lr.ph.i, label %php_dom_named_node_map_get_item.exit

php_dom_named_node_map_get_item.exit:             ; preds = %.lr.ph.i, %13, %15, %20
  %.019.i = phi ptr [ %14, %13 ], [ %16, %15 ], [ %.01826.i, %20 ], [ %.018.i, %.lr.ph.i ]
  %.not = icmp eq ptr %.019.i, null
  br i1 %.not, label %php_dom_named_node_map_get_item.exit.thread, label %30

30:                                               ; preds = %php_dom_named_node_map_get_item.exit
  %31 = load ptr, ptr %0, align 8
  %32 = tail call zeroext i1 @php_dom_create_object(ptr noundef nonnull %.019.i, ptr noundef %2, ptr noundef %31) #3
  br label %34

php_dom_named_node_map_get_item.exit.thread:      ; preds = %3, %17, %7, %php_dom_named_node_map_get_item.exit
  %33 = getelementptr inbounds i8, ptr %2, i64 8
  store i32 1, ptr %33, align 8
  br label %34

34:                                               ; preds = %php_dom_named_node_map_get_item.exit.thread, %30
  ret void
}